; Function Attrs: mustprogress norecurse uwtable
define internal fastcc void @_ZL12require_gridPKc(ptr noundef %0) unnamed_addr #10 {
.preheader19.i:
  %1 = alloca %struct.PJ_GRID_INFO, align 8
  br label %2

2:                                                ; preds = %2, %.preheader19.i
  %.1.i = phi ptr [ %6, %2 ], [ %0, %.preheader19.i ]
  %3 = load i8, ptr %.1.i, align 1
  %4 = sext i8 %3 to i32
  %5 = tail call i32 @isspace(i32 noundef %4) #27
  %.not.i = icmp eq i32 %5, 0
  %6 = getelementptr inbounds i8, ptr %.1.i, i64 1
  br i1 %.not.i, label %_ZL6columnPKci.exit, label %2, !llvm.loop !24

_ZL6columnPKci.exit:                              ; preds = %2
  call void @proj_grid_info(ptr dead_on_unwind nonnull writable sret(%struct.PJ_GRID_INFO) align 8 %1, ptr noundef nonnull %.1.i)
  %.sroa.1.0..sroa_idx = getelementptr inbounds i8, ptr %1, i64 32
  %.sroa.1.0.copyload = load i8, ptr %.sroa.1.0..sroa_idx, align 8
  %7 = icmp eq i8 %.sroa.1.0.copyload, 0
  br i1 %7, label %8, label %15

8:                                                ; preds = %_ZL6columnPKci.exit
  %9 = load i32, ptr getelementptr inbounds (%struct.gie_ctx, ptr @_ZL1T, i64 0, i32 8), align 4
  %10 = icmp sgt i32 %9, 1
  br i1 %10, label %11, label %14

11:                                               ; preds = %8
  %12 = load ptr, ptr getelementptr inbounds (%struct.gie_ctx, ptr @_ZL1T, i64 0, i32 28), align 8
  %13 = call i32 (ptr, ptr, ...) @fprintf(ptr noundef %12, ptr noundef nonnull @.str.131, ptr noundef nonnull %.1.i) #26
  br label %14

14:                                               ; preds = %11, %8
  store i32 1, ptr getelementptr inbounds (%struct.gie_ctx, ptr @_ZL1T, i64 0, i32 26), align 8
  br label %15

15:                                               ; preds = %14, %_ZL6columnPKci.exit
  ret void
}